target datalayout = "e-m:e-p270:32:32-p271:32:32-p272:64:64-i64:64-i128:128-f80:128-n8:16:32:64-S128"
target triple = "x86_64-pc-linux-gnu"

%struct.reassembly_table = type { ptr, ptr, ptr, ptr, ptr }
%struct._address = type { i32, i32, ptr, ptr }
%struct._packet_info = type { ptr, ptr, i32, i32, %struct.nstime_t, %struct.nstime_t, %struct.nstime_t, i8, ptr, ptr, ptr, ptr, %struct._address, %struct._address, %struct._address, %struct._address, %struct._address, %struct._address, i32, ptr, i8, [3 x i8], %struct.anon, i32, i32, i32, i32, ptr, i8, ptr, ptr, i16, i16, i32, i32, i16, i32, i32, ptr, ptr, ptr, i8, i8, i16, i16, i16, i32, i16, i16, ptr, ptr, ptr, ptr, ptr, i32, i32 }
%struct.nstime_t = type { i64, i32 }
%struct.anon = type { i8, [3 x i8] }
%struct._t38_conv_info = type { i32, i32, i32, i32, i32, i32, i32, double, i32, i32, ptr }
%struct._asn1_ctx_t = type { i32, i32, i8, ptr, ptr, ptr, ptr, ptr, %struct.anon.0, %struct.anon.3, %struct.anon.4, ptr }
%struct.anon.0 = type { i32, i8, i8, i8, ptr, ptr, i32, i32, ptr, ptr, ptr, %union.anon }
%union.anon = type { %struct.anon.1 }
%struct.anon.1 = type { ptr }
%struct.anon.3 = type { ptr, ptr, ptr }
%struct.anon.4 = type { i32, i8, ptr, i32, i32, ptr, ptr, ptr, %union.anon.5 }
%union.anon.5 = type { %struct.anon.6 }
%struct.anon.6 = type { ptr }

@data_reassembly_table = internal global %struct.reassembly_table zeroinitializer, align 8
@primary_part = internal global i8 1, align 1
@Data_Field_item_num = internal global i32 0, align 4
@p_t38_packet_conv = internal global ptr null, align 8
@p_t38_conv = internal global ptr null, align 8
@p_t38_conv_info = internal global ptr null, align 8
@p_t38_packet_conv_info = internal global ptr null, align 8
@Data_Field_field_type_value = internal global i32 0, align 4
@seq_number = internal global i32 0, align 4
@.str.168 = private unnamed_addr constant [16 x i8] c"Reassembled T38\00", align 1
@.str.172 = private unnamed_addr constant [5 x i8] c"[%s]\00", align 1
@.str.173 = private unnamed_addr constant [8 x i8] c"[%s...]\00", align 1
@.str.174 = private unnamed_addr constant [20 x i8] c" (HDLC fragment %u)\00", align 1
@.str.175 = private unnamed_addr constant [23 x i8] c" (t4-data fragment %u)\00", align 1

; Function Attrs: null_pointer_is_valid sspstrong uwtable
define internal i32 @dissect_t38_T_field_data(ptr noundef %0, i32 noundef %1, ptr noundef %2, ptr noundef %3, i32 noundef %4) #0 {
  %6 = alloca ptr, align 8
  %7 = alloca i32, align 4
  %8 = alloca ptr, align 8
  %9 = alloca ptr, align 8
  %10 = alloca i32, align 4
  %11 = alloca ptr, align 8
  %12 = alloca i32, align 4
  %13 = alloca ptr, align 8
  %14 = alloca i8, align 1
  %15 = alloca i32, align 4
  store ptr %0, ptr %6, align 8
  store i32 %1, ptr %7, align 4
  store ptr %2, ptr %8, align 8
  store ptr %3, ptr %9, align 8
  store i32 %4, ptr %10, align 4
  call void @llvm.lifetime.start.p0(i64 8, ptr %11) #10
  store ptr null, ptr %11, align 8
  call void @llvm.lifetime.start.p0(i64 4, ptr %12) #10
  %16 = load ptr, ptr %6, align 8
  %17 = load i32, ptr %7, align 4
  %18 = load ptr, ptr %8, align 8
  %19 = load ptr, ptr %9, align 8
  %20 = load i32, ptr %10, align 4
  %21 = call i32 @dissect_per_octet_string(ptr noundef %16, i32 noundef %17, ptr noundef %18, ptr noundef %19, i32 noundef %20, i32 noundef 1, i32 noundef 65535, i1 noundef zeroext false, ptr noundef %11)
  store i32 %21, ptr %7, align 4
  %22 = load ptr, ptr %11, align 8
  %23 = call i32 @tvb_reported_length(ptr noundef %22)
  store i32 %23, ptr %12, align 4
  %24 = load i8, ptr @primary_part, align 1, !range !6, !noundef !7
  %25 = trunc i8 %24 to i1
  br i1 %25, label %26, label %57

26:                                               ; preds = %5
  %27 = load i32, ptr %12, align 4
  %28 = icmp ult i32 %27, 8
  br i1 %28, label %29, label %43

29:                                               ; preds = %26
  %30 = load ptr, ptr %8, align 8
  %31 = getelementptr inbounds nuw %struct._asn1_ctx_t, ptr %30, i32 0, i32 3
  %32 = load ptr, ptr %31, align 8
  %33 = getelementptr inbounds nuw %struct._packet_info, ptr %32, i32 0, i32 1
  %34 = load ptr, ptr %33, align 8
  %35 = load ptr, ptr %8, align 8
  %36 = getelementptr inbounds nuw %struct._asn1_ctx_t, ptr %35, i32 0, i32 3
  %37 = load ptr, ptr %36, align 8
  %38 = getelementptr inbounds nuw %struct._packet_info, ptr %37, i32 0, i32 51
  %39 = load ptr, ptr %38, align 8
  %40 = load ptr, ptr %11, align 8
  %41 = load i32, ptr %12, align 4
  %42 = call ptr @tvb_bytes_to_str(ptr noundef %39, ptr noundef %40, i32 noundef 0, i32 noundef %41)
  call void (ptr, i32, ptr, ...) @col_append_fstr(ptr noundef %34, i32 noundef 25, ptr noundef @.str.172, ptr noundef %42)
  br label %56

43:                                               ; preds = %26
  %44 = load ptr, ptr %8, align 8
  %45 = getelementptr inbounds nuw %struct._asn1_ctx_t, ptr %44, i32 0, i32 3
  %46 = load ptr, ptr %45, align 8
  %47 = getelementptr inbounds nuw %struct._packet_info, ptr %46, i32 0, i32 1
  %48 = load ptr, ptr %47, align 8
  %49 = load ptr, ptr %8, align 8
  %50 = getelementptr inbounds nuw %struct._asn1_ctx_t, ptr %49, i32 0, i32 3
  %51 = load ptr, ptr %50, align 8
  %52 = getelementptr inbounds nuw %struct._packet_info, ptr %51, i32 0, i32 51
  %53 = load ptr, ptr %52, align 8
  %54 = load ptr, ptr %11, align 8
  %55 = call ptr @tvb_bytes_to_str(ptr noundef %53, ptr noundef %54, i32 noundef 0, i32 noundef 7)
  call void (ptr, i32, ptr, ...) @col_append_fstr(ptr noundef %48, i32 noundef 25, ptr noundef @.str.173, ptr noundef %55)
  br label %56

56:                                               ; preds = %43, %29
  br label %57

57:                                               ; preds = %56, %5
  %58 = load i8, ptr @primary_part, align 1, !range !6, !noundef !7
  %59 = trunc i8 %58 to i1
  br i1 %59, label %60, label %234

60:                                               ; preds = %57
  call void @llvm.lifetime.start.p0(i64 8, ptr %13) #10
  store ptr null, ptr %13, align 8
  %61 = load i32, ptr @Data_Field_field_type_value, align 4
  %62 = icmp eq i32 %61, 0
  br i1 %62, label %66, label %63

63:                                               ; preds = %60
  %64 = load i32, ptr @Data_Field_field_type_value, align 4
  %65 = icmp eq i32 %64, 6
  br i1 %65, label %66, label %233

66:                                               ; preds = %63, %60
  call void @llvm.lifetime.start.p0(i64 1, ptr %14) #10
  %67 = load ptr, ptr %8, align 8
  %68 = getelementptr inbounds nuw %struct._asn1_ctx_t, ptr %67, i32 0, i32 3
  %69 = load ptr, ptr %68, align 8
  %70 = getelementptr inbounds nuw %struct._packet_info, ptr %69, i32 0, i32 20
  %71 = load i8, ptr %70, align 8, !range !6, !noundef !7
  %72 = trunc i8 %71 to i1
  %73 = zext i1 %72 to i8
  store i8 %73, ptr %14, align 1
  %74 = load ptr, ptr %8, align 8
  %75 = getelementptr inbounds nuw %struct._asn1_ctx_t, ptr %74, i32 0, i32 3
  %76 = load ptr, ptr %75, align 8
  %77 = getelementptr inbounds nuw %struct._packet_info, ptr %76, i32 0, i32 20
  store i8 1, ptr %77, align 8
  %78 = load ptr, ptr @p_t38_packet_conv, align 8
  %79 = icmp ne ptr %78, null
  br i1 %79, label %80, label %136

80:                                               ; preds = %66
  %81 = load ptr, ptr @p_t38_conv, align 8
  %82 = icmp ne ptr %81, null
  br i1 %82, label %83, label %136

83:                                               ; preds = %80
  %84 = load ptr, ptr @p_t38_packet_conv_info, align 8
  %85 = getelementptr inbounds nuw %struct._t38_conv_info, ptr %84, i32 0, i32 1
  %86 = load i32, ptr %85, align 4
  %87 = icmp eq i32 %86, -1
  br i1 %87, label %88, label %136

88:                                               ; preds = %83
  %89 = load ptr, ptr %8, align 8
  %90 = getelementptr inbounds nuw %struct._asn1_ctx_t, ptr %89, i32 0, i32 3
  %91 = load ptr, ptr %90, align 8
  %92 = getelementptr inbounds nuw %struct._packet_info, ptr %91, i32 0, i32 3
  %93 = load i32, ptr %92, align 4
  %94 = load ptr, ptr @p_t38_conv_info, align 8
  %95 = getelementptr inbounds nuw %struct._t38_conv_info, ptr %94, i32 0, i32 0
  store i32 %93, ptr %95, align 8
  %96 = load i32, ptr @seq_number, align 4
  %97 = load ptr, ptr @p_t38_conv_info, align 8
  %98 = getelementptr inbounds nuw %struct._t38_conv_info, ptr %97, i32 0, i32 1
  store i32 %96, ptr %98, align 4
  %99 = load ptr, ptr %8, align 8
  %100 = getelementptr inbounds nuw %struct._asn1_ctx_t, ptr %99, i32 0, i32 3
  %101 = load ptr, ptr %100, align 8
  %102 = getelementptr inbounds nuw %struct._packet_info, ptr %101, i32 0, i32 5
  %103 = call double @nstime_to_sec(ptr noundef %102)
  %104 = load ptr, ptr @p_t38_conv_info, align 8
  %105 = getelementptr inbounds nuw %struct._t38_conv_info, ptr %104, i32 0, i32 7
  store double %103, ptr %105, align 8
  %106 = load ptr, ptr @p_t38_conv_info, align 8
  %107 = getelementptr inbounds nuw %struct._t38_conv_info, ptr %106, i32 0, i32 8
  store i32 0, ptr %107, align 8
  %108 = load ptr, ptr @p_t38_conv_info, align 8
  %109 = getelementptr inbounds nuw %struct._t38_conv_info, ptr %108, i32 0, i32 0
  %110 = load i32, ptr %109, align 8
  %111 = load ptr, ptr @p_t38_packet_conv_info, align 8
  %112 = getelementptr inbounds nuw %struct._t38_conv_info, ptr %111, i32 0, i32 0
  store i32 %110, ptr %112, align 8
  %113 = load ptr, ptr @p_t38_conv_info, align 8
  %114 = getelementptr inbounds nuw %struct._t38_conv_info, ptr %113, i32 0, i32 1
  %115 = load i32, ptr %114, align 4
  %116 = load ptr, ptr @p_t38_packet_conv_info, align 8
  %117 = getelementptr inbounds nuw %struct._t38_conv_info, ptr %116, i32 0, i32 1
  store i32 %115, ptr %117, align 4
  %118 = load i32, ptr @Data_Field_item_num, align 4
  %119 = load ptr, ptr @p_t38_packet_conv_info, align 8
  %120 = getelementptr inbounds nuw %struct._t38_conv_info, ptr %119, i32 0, i32 2
  store i32 %118, ptr %120, align 8
  %121 = load ptr, ptr @p_t38_conv_info, align 8
  %122 = getelementptr inbounds nuw %struct._t38_conv_info, ptr %121, i32 0, i32 9
  %123 = load i32, ptr %122, align 4
  %124 = load ptr, ptr @p_t38_packet_conv_info, align 8
  %125 = getelementptr inbounds nuw %struct._t38_conv_info, ptr %124, i32 0, i32 9
  store i32 %123, ptr %125, align 4
  %126 = load ptr, ptr @p_t38_conv_info, align 8
  %127 = getelementptr inbounds nuw %struct._t38_conv_info, ptr %126, i32 0, i32 8
  %128 = load i32, ptr %127, align 8
  %129 = load ptr, ptr @p_t38_packet_conv_info, align 8
  %130 = getelementptr inbounds nuw %struct._t38_conv_info, ptr %129, i32 0, i32 8
  store i32 %128, ptr %130, align 8
  %131 = load ptr, ptr @p_t38_conv_info, align 8
  %132 = getelementptr inbounds nuw %struct._t38_conv_info, ptr %131, i32 0, i32 7
  %133 = load double, ptr %132, align 8
  %134 = load ptr, ptr @p_t38_packet_conv_info, align 8
  %135 = getelementptr inbounds nuw %struct._t38_conv_info, ptr %134, i32 0, i32 7
  store double %133, ptr %135, align 8
  br label %136

136:                                              ; preds = %88, %83, %80, %66
  %137 = load i32, ptr @seq_number, align 4
  %138 = load ptr, ptr @p_t38_packet_conv_info, align 8
  %139 = getelementptr inbounds nuw %struct._t38_conv_info, ptr %138, i32 0, i32 9
  %140 = load i32, ptr %139, align 4
  %141 = icmp eq i32 %137, %140
  br i1 %141, label %142, label %151

142:                                              ; preds = %136
  %143 = load ptr, ptr @p_t38_conv, align 8
  %144 = icmp ne ptr %143, null
  br i1 %144, label %145, label %150

145:                                              ; preds = %142
  %146 = load ptr, ptr @p_t38_conv_info, align 8
  %147 = getelementptr inbounds nuw %struct._t38_conv_info, ptr %146, i32 0, i32 8
  %148 = load i32, ptr %147, align 8
  %149 = add i32 %148, 1
  store i32 %149, ptr %147, align 8
  br label %150

150:                                              ; preds = %145, %142
  br label %151

151:                                              ; preds = %150, %136
  call void @llvm.lifetime.start.p0(i64 4, ptr %15) #10
  %152 = load i32, ptr @seq_number, align 4
  %153 = load ptr, ptr @p_t38_packet_conv_info, align 8
  %154 = getelementptr inbounds nuw %struct._t38_conv_info, ptr %153, i32 0, i32 1
  %155 = load i32, ptr %154, align 4
  %156 = icmp eq i32 %152, %155
  br i1 %156, label %157, label %167

157:                                              ; preds = %151
  %158 = load ptr, ptr @p_t38_packet_conv_info, align 8
  %159 = getelementptr inbounds nuw %struct._t38_conv_info, ptr %158, i32 0, i32 8
  %160 = load i32, ptr %159, align 8
  %161 = load i32, ptr @Data_Field_item_num, align 4
  %162 = add i32 %160, %161
  %163 = load ptr, ptr @p_t38_packet_conv_info, align 8
  %164 = getelementptr inbounds nuw %struct._t38_conv_info, ptr %163, i32 0, i32 2
  %165 = load i32, ptr %164, align 8
  %166 = sub i32 %162, %165
  store i32 %166, ptr %15, align 4
  br label %179

167:                                              ; preds = %151
  %168 = load i32, ptr @seq_number, align 4
  %169 = load ptr, ptr @p_t38_packet_conv_info, align 8
  %170 = getelementptr inbounds nuw %struct._t38_conv_info, ptr %169, i32 0, i32 1
  %171 = load i32, ptr %170, align 4
  %172 = sub i32 %168, %171
  %173 = load ptr, ptr @p_t38_packet_conv_info, align 8
  %174 = getelementptr inbounds nuw %struct._t38_conv_info, ptr %173, i32 0, i32 8
  %175 = load i32, ptr %174, align 8
  %176 = add i32 %172, %175
  %177 = load i32, ptr @Data_Field_item_num, align 4
  %178 = add i32 %176, %177
  store i32 %178, ptr %15, align 4
  br label %179

179:                                              ; preds = %167, %157
  %180 = load ptr, ptr %11, align 8
  %181 = load ptr, ptr %8, align 8
  %182 = getelementptr inbounds nuw %struct._asn1_ctx_t, ptr %181, i32 0, i32 3
  %183 = load ptr, ptr %182, align 8
  %184 = load ptr, ptr @p_t38_packet_conv_info, align 8
  %185 = getelementptr inbounds nuw %struct._t38_conv_info, ptr %184, i32 0, i32 0
  %186 = load i32, ptr %185, align 8
  %187 = load i32, ptr %15, align 4
  %188 = load i32, ptr %12, align 4
  %189 = call ptr @fragment_add_seq(ptr noundef @data_reassembly_table, ptr noundef %180, i32 noundef 0, ptr noundef %183, i32 noundef %186, ptr noundef null, i32 noundef %187, i32 noundef %188, i1 noundef zeroext true, i32 noundef 0)
  store ptr %189, ptr %13, align 8
  %190 = load i32, ptr @seq_number, align 4
  %191 = load ptr, ptr @p_t38_packet_conv_info, align 8
  %192 = getelementptr inbounds nuw %struct._t38_conv_info, ptr %191, i32 0, i32 9
  store i32 %190, ptr %192, align 4
  %193 = load ptr, ptr %6, align 8
  %194 = load i32, ptr %7, align 4
  %195 = load ptr, ptr %8, align 8
  %196 = getelementptr inbounds nuw %struct._asn1_ctx_t, ptr %195, i32 0, i32 3
  %197 = load ptr, ptr %196, align 8
  %198 = load ptr, ptr %13, align 8
  %199 = load ptr, ptr %9, align 8
  %200 = call ptr @process_reassembled_data(ptr noundef %193, i32 noundef %194, ptr noundef %197, ptr noundef @.str.168, ptr noundef %198, ptr noundef @data_frag_items, ptr noundef null, ptr noundef %199)
  %201 = load ptr, ptr %13, align 8
  %202 = icmp ne ptr %201, null
  br i1 %202, label %225, label %203

203:                                              ; preds = %179
  %204 = load i32, ptr @Data_Field_field_type_value, align 4
  %205 = icmp eq i32 %204, 0
  br i1 %205, label %206, label %213

206:                                              ; preds = %203
  %207 = load ptr, ptr %8, align 8
  %208 = getelementptr inbounds nuw %struct._asn1_ctx_t, ptr %207, i32 0, i32 3
  %209 = load ptr, ptr %208, align 8
  %210 = getelementptr inbounds nuw %struct._packet_info, ptr %209, i32 0, i32 1
  %211 = load ptr, ptr %210, align 8
  %212 = load i32, ptr %15, align 4
  call void (ptr, i32, ptr, ...) @col_append_fstr(ptr noundef %211, i32 noundef 25, ptr noundef @.str.174, i32 noundef %212)
  br label %224

213:                                              ; preds = %203
  %214 = load ptr, ptr %8, align 8
  %215 = getelementptr inbounds nuw %struct._asn1_ctx_t, ptr %214, i32 0, i32 3
  %216 = load ptr, ptr %215, align 8
  %217 = getelementptr inbounds nuw %struct._packet_info, ptr %216, i32 0, i32 1
  %218 = load ptr, ptr %217, align 8
  %219 = load i32, ptr @seq_number, align 4
  %220 = load ptr, ptr @p_t38_packet_conv_info, align 8
  %221 = getelementptr inbounds nuw %struct._t38_conv_info, ptr %220, i32 0, i32 1
  %222 = load i32, ptr %221, align 4
  %223 = sub i32 %219, %222
  call void (ptr, i32, ptr, ...) @col_append_fstr(ptr noundef %218, i32 noundef 25, ptr noundef @.str.175, i32 noundef %223)
  br label %224

224:                                              ; preds = %213, %206
  br label %225

225:                                              ; preds = %224, %179
  %226 = load i8, ptr %14, align 1, !range !6, !noundef !7
  %227 = trunc i8 %226 to i1
  %228 = load ptr, ptr %8, align 8
  %229 = getelementptr inbounds nuw %struct._asn1_ctx_t, ptr %228, i32 0, i32 3
  %230 = load ptr, ptr %229, align 8
  %231 = getelementptr inbounds nuw %struct._packet_info, ptr %230, i32 0, i32 20
  %232 = zext i1 %227 to i8
  store i8 %232, ptr %231, align 8
  call void @llvm.lifetime.end.p0(i64 4, ptr %15) #10
  call void @llvm.lifetime.end.p0(i64 1, ptr %14) #10
  br label %233

233:                                              ; preds = %225, %63
  call void @llvm.lifetime.end.p0(i64 8, ptr %13) #10
  br label %234

234:                                              ; preds = %233, %57
  %235 = load i32, ptr %7, align 4
  call void @llvm.lifetime.end.p0(i64 4, ptr %12) #10
  call void @llvm.lifetime.end.p0(i64 8, ptr %11) #10
  ret i32 %235
}