; Function Attrs: null_pointer_is_valid sspstrong uwtable
define internal i32 @dissect_t38_T_field_data(ptr noundef %0, i32 noundef %1, ptr noundef %2, ptr noundef %3, i32 noundef %4) #0 {
  %6 = alloca ptr, align 8
  call void @llvm.lifetime.start.p0(i64 8, ptr nonnull %6) #10
  store ptr null, ptr %6, align 8
  %7 = call i32 @dissect_per_octet_string(ptr noundef %0, i32 noundef %1, ptr noundef %2, ptr noundef %3, i32 noundef %4, i32 noundef 1, i32 noundef 65535, i1 noundef zeroext false, ptr noundef nonnull %6)
  %8 = load ptr, ptr %6, align 8
  %9 = call i32 @tvb_reported_length(ptr noundef %8)
  %.b37 = load i1, ptr @primary_part, align 1
  br i1 %.b37, label %.thread, label %10

10:                                               ; preds = %5
  %11 = icmp ult i32 %9, 8
  %12 = getelementptr inbounds nuw i8, ptr %2, i64 16
  %13 = load ptr, ptr %12, align 8
  %14 = getelementptr inbounds nuw i8, ptr %13, i64 8
  %15 = load ptr, ptr %14, align 8
  %16 = getelementptr inbounds nuw i8, ptr %13, i64 408
  %17 = load ptr, ptr %16, align 8
  %18 = load ptr, ptr %6, align 8
  %. = select i1 %11, i32 %9, i32 7
  %.str.172..str.173 = select i1 %11, ptr @.str.172, ptr @.str.173
  %19 = call ptr @tvb_bytes_to_str(ptr noundef %17, ptr noundef %18, i32 noundef 0, i32 noundef %.)
  call void (ptr, i32, ptr, ...) @col_append_fstr(ptr noundef %15, i32 noundef 25, ptr noundef nonnull %.str.172..str.173, ptr noundef %19)
  %.b.pr = load i1, ptr @primary_part, align 1
  br i1 %.b.pr, label %.thread, label %20

20:                                               ; preds = %10
  %21 = load i32, ptr @Data_Field_field_type_value, align 4
  switch i32 %21, label %.thread [
    i32 6, label %22
    i32 0, label %22
  ]

22:                                               ; preds = %20, %20
  %23 = getelementptr inbounds nuw i8, ptr %2, i64 16
  %24 = load ptr, ptr %23, align 8
  %25 = getelementptr inbounds nuw i8, ptr %24, i64 272
  %26 = load i8, ptr %25, align 8, !range !6, !noundef !7
  store i8 1, ptr %25, align 8
  %27 = load ptr, ptr @p_t38_packet_conv, align 8
  %28 = icmp ne ptr %27, null
  %29 = load ptr, ptr @p_t38_conv, align 8
  %30 = icmp ne ptr %29, null
  %or.cond3 = select i1 %28, i1 %30, i1 false
  %.pre = load ptr, ptr @p_t38_packet_conv_info, align 8
  br i1 %or.cond3, label %31, label %62

31:                                               ; preds = %22
  %32 = getelementptr inbounds nuw i8, ptr %.pre, i64 4
  %33 = load i32, ptr %32, align 4
  %34 = icmp eq i32 %33, -1
  br i1 %34, label %35, label %62

35:                                               ; preds = %31
  %36 = load ptr, ptr %23, align 8
  %37 = getelementptr inbounds nuw i8, ptr %36, i64 20
  %38 = load i32, ptr %37, align 4
  %39 = load ptr, ptr @p_t38_conv_info, align 8
  store i32 %38, ptr %39, align 8
  %40 = load i32, ptr @seq_number, align 4
  %41 = getelementptr inbounds nuw i8, ptr %39, i64 4
  store i32 %40, ptr %41, align 4
  %42 = load ptr, ptr %23, align 8
  %43 = getelementptr inbounds nuw i8, ptr %42, i64 40
  %44 = call double @nstime_to_sec(ptr noundef nonnull %43)
  %45 = load ptr, ptr @p_t38_conv_info, align 8
  %46 = getelementptr inbounds nuw i8, ptr %45, i64 32
  store double %44, ptr %46, align 8
  %47 = getelementptr inbounds nuw i8, ptr %45, i64 40
  store i32 0, ptr %47, align 8
  %48 = load i32, ptr %45, align 8
  %49 = load ptr, ptr @p_t38_packet_conv_info, align 8
  store i32 %48, ptr %49, align 8
  %50 = getelementptr inbounds nuw i8, ptr %45, i64 4
  %51 = load i32, ptr %50, align 4
  %52 = getelementptr inbounds nuw i8, ptr %49, i64 4
  store i32 %51, ptr %52, align 4
  %53 = load i32, ptr @Data_Field_item_num, align 4
  %54 = getelementptr inbounds nuw i8, ptr %49, i64 8
  store i32 %53, ptr %54, align 8
  %55 = getelementptr inbounds nuw i8, ptr %45, i64 44
  %56 = load i32, ptr %55, align 4
  %57 = getelementptr inbounds nuw i8, ptr %49, i64 44
  store i32 %56, ptr %57, align 4
  %58 = load i32, ptr %47, align 8
  %59 = getelementptr inbounds nuw i8, ptr %49, i64 40
  store i32 %58, ptr %59, align 8
  %60 = load double, ptr %46, align 8
  %61 = getelementptr inbounds nuw i8, ptr %49, i64 32
  store double %60, ptr %61, align 8
  %.pre40 = load ptr, ptr @p_t38_conv, align 8
  br label %62

62:                                               ; preds = %35, %31, %22
  %63 = phi ptr [ %.pre40, %35 ], [ %29, %31 ], [ %29, %22 ]
  %64 = phi ptr [ %49, %35 ], [ %.pre, %31 ], [ %.pre, %22 ]
  %65 = load i32, ptr @seq_number, align 4
  %66 = getelementptr inbounds nuw i8, ptr %64, i64 44
  %67 = load i32, ptr %66, align 4
  %68 = icmp eq i32 %65, %67
  %69 = icmp ne ptr %63, null
  %or.cond5 = select i1 %68, i1 %69, i1 false
  br i1 %or.cond5, label %70, label %75

70:                                               ; preds = %62
  %71 = load ptr, ptr @p_t38_conv_info, align 8
  %72 = getelementptr inbounds nuw i8, ptr %71, i64 40
  %73 = load i32, ptr %72, align 8
  %74 = add i32 %73, 1
  store i32 %74, ptr %72, align 8
  br label %75

75:                                               ; preds = %70, %62
  %76 = getelementptr inbounds nuw i8, ptr %64, i64 4
  %77 = load i32, ptr %76, align 4
  %78 = icmp eq i32 %65, %77
  br i1 %78, label %79, label %87

79:                                               ; preds = %75
  %80 = getelementptr inbounds nuw i8, ptr %64, i64 40
  %81 = load i32, ptr %80, align 8
  %82 = load i32, ptr @Data_Field_item_num, align 4
  %83 = add i32 %82, %81
  %84 = getelementptr inbounds nuw i8, ptr %64, i64 8
  %85 = load i32, ptr %84, align 8
  %86 = sub i32 %83, %85
  br label %94

87:                                               ; preds = %75
  %88 = sub i32 %65, %77
  %89 = getelementptr inbounds nuw i8, ptr %64, i64 40
  %90 = load i32, ptr %89, align 8
  %91 = add i32 %88, %90
  %92 = load i32, ptr @Data_Field_item_num, align 4
  %93 = add i32 %91, %92
  br label %94

94:                                               ; preds = %87, %79
  %.0 = phi i32 [ %86, %79 ], [ %93, %87 ]
  %95 = load ptr, ptr %6, align 8
  %96 = load ptr, ptr %23, align 8
  %97 = load i32, ptr %64, align 8
  %98 = call ptr @fragment_add_seq(ptr noundef nonnull @data_reassembly_table, ptr noundef %95, i32 noundef 0, ptr noundef %96, i32 noundef %97, ptr noundef null, i32 noundef %.0, i32 noundef %9, i1 noundef zeroext true, i32 noundef 0)
  %99 = load i32, ptr @seq_number, align 4
  %100 = load ptr, ptr @p_t38_packet_conv_info, align 8
  %101 = getelementptr inbounds nuw i8, ptr %100, i64 44
  store i32 %99, ptr %101, align 4
  %102 = load ptr, ptr %23, align 8
  %103 = call ptr @process_reassembled_data(ptr noundef %0, i32 noundef %7, ptr noundef %102, ptr noundef nonnull @.str.168, ptr noundef %98, ptr noundef nonnull @data_frag_items, ptr noundef null, ptr noundef %3)
  %.not = icmp eq ptr %98, null
  br i1 %.not, label %104, label %117

104:                                              ; preds = %94
  %105 = load i32, ptr @Data_Field_field_type_value, align 4
  %106 = icmp eq i32 %105, 0
  %107 = load ptr, ptr %23, align 8
  %108 = getelementptr inbounds nuw i8, ptr %107, i64 8
  %109 = load ptr, ptr %108, align 8
  br i1 %106, label %110, label %111

110:                                              ; preds = %104
  call void (ptr, i32, ptr, ...) @col_append_fstr(ptr noundef %109, i32 noundef 25, ptr noundef nonnull @.str.174, i32 noundef %.0)
  br label %117

111:                                              ; preds = %104
  %112 = load i32, ptr @seq_number, align 4
  %113 = load ptr, ptr @p_t38_packet_conv_info, align 8
  %114 = getelementptr inbounds nuw i8, ptr %113, i64 4
  %115 = load i32, ptr %114, align 4
  %116 = sub i32 %112, %115
  call void (ptr, i32, ptr, ...) @col_append_fstr(ptr noundef %109, i32 noundef 25, ptr noundef nonnull @.str.175, i32 noundef %116)
  br label %117

117:                                              ; preds = %110, %111, %94
  %118 = load ptr, ptr %23, align 8
  %119 = getelementptr inbounds nuw i8, ptr %118, i64 272
  store i8 %26, ptr %119, align 8
  br label %.thread

.thread:                                          ; preds = %5, %117, %20, %10
  call void @llvm.lifetime.end.p0(i64 8, ptr nonnull %6) #10
  ret i32 %7
}